target datalayout = "e-m:e-p270:32:32-p271:32:32-p272:64:64-i64:64-i128:128-f80:128-n8:16:32:64-S128"
target triple = "x86_64-pc-linux-gnu"

%"class.boost::archive::class_id_type" = type { i16 }
%"class.boost::archive::version_type" = type { i32 }
%"class.boost::archive::detail::basic_iarchive_impl::cobject_id" = type <{ ptr, ptr, %"class.boost::archive::version_type", %"struct.boost::archive::tracking_type", i8, [2 x i8] }>
%"struct.boost::archive::tracking_type" = type { i8 }
%"class.boost::archive::detail::basic_iarchive_impl" = type { %"class.boost::serialization::library_version_type", i32, %"class.std::vector", %"struct.boost::archive::detail::basic_iarchive_impl::moveable_objects", %"class.std::set", %"class.std::vector.3", %"struct.boost::archive::detail::basic_iarchive_impl::pending" }
%"class.boost::serialization::library_version_type" = type { i16 }
%"class.std::vector" = type { %"struct.std::_Vector_base" }
%"struct.std::_Vector_base" = type { %"struct.std::_Vector_base<boost::archive::detail::basic_iarchive_impl::aobject, std::allocator<boost::archive::detail::basic_iarchive_impl::aobject>>::_Vector_impl" }
%"struct.std::_Vector_base<boost::archive::detail::basic_iarchive_impl::aobject, std::allocator<boost::archive::detail::basic_iarchive_impl::aobject>>::_Vector_impl" = type { %"struct.std::_Vector_base<boost::archive::detail::basic_iarchive_impl::aobject, std::allocator<boost::archive::detail::basic_iarchive_impl::aobject>>::_Vector_impl_data" }
%"struct.std::_Vector_base<boost::archive::detail::basic_iarchive_impl::aobject, std::allocator<boost::archive::detail::basic_iarchive_impl::aobject>>::_Vector_impl_data" = type { ptr, ptr, ptr }
%"struct.boost::archive::detail::basic_iarchive_impl::moveable_objects" = type <{ %"class.boost::archive::object_id_type", %"class.boost::archive::object_id_type", %"class.boost::archive::object_id_type", i8, [3 x i8] }>
%"class.boost::archive::object_id_type" = type { i32 }
%"class.std::set" = type { %"class.std::_Rb_tree" }
%"class.std::_Rb_tree" = type { %"struct.std::_Rb_tree<boost::archive::detail::basic_iarchive_impl::cobject_type, boost::archive::detail::basic_iarchive_impl::cobject_type, std::_Identity<boost::archive::detail::basic_iarchive_impl::cobject_type>, std::less<boost::archive::detail::basic_iarchive_impl::cobject_type>>::_Rb_tree_impl" }
%"struct.std::_Rb_tree<boost::archive::detail::basic_iarchive_impl::cobject_type, boost::archive::detail::basic_iarchive_impl::cobject_type, std::_Identity<boost::archive::detail::basic_iarchive_impl::cobject_type>, std::less<boost::archive::detail::basic_iarchive_impl::cobject_type>>::_Rb_tree_impl" = type { [8 x i8], %"struct.std::_Rb_tree_header" }
%"struct.std::_Rb_tree_header" = type { %"struct.std::_Rb_tree_node_base", i64 }
%"struct.std::_Rb_tree_node_base" = type { i32, ptr, ptr, ptr }
%"class.std::vector.3" = type { %"struct.std::_Vector_base.4" }
%"struct.std::_Vector_base.4" = type { %"struct.std::_Vector_base<boost::archive::detail::basic_iarchive_impl::cobject_id, std::allocator<boost::archive::detail::basic_iarchive_impl::cobject_id>>::_Vector_impl" }
%"struct.std::_Vector_base<boost::archive::detail::basic_iarchive_impl::cobject_id, std::allocator<boost::archive::detail::basic_iarchive_impl::cobject_id>>::_Vector_impl" = type { %"struct.std::_Vector_base<boost::archive::detail::basic_iarchive_impl::cobject_id, std::allocator<boost::archive::detail::basic_iarchive_impl::cobject_id>>::_Vector_impl_data" }
%"struct.std::_Vector_base<boost::archive::detail::basic_iarchive_impl::cobject_id, std::allocator<boost::archive::detail::basic_iarchive_impl::cobject_id>>::_Vector_impl_data" = type { ptr, ptr, ptr }
%"struct.boost::archive::detail::basic_iarchive_impl::pending" = type <{ ptr, ptr, %"class.boost::archive::version_type", [4 x i8] }>
%"struct.boost::archive::detail::basic_iarchive_impl::aobject" = type <{ ptr, i8, i8, %"class.boost::archive::class_id_type", [4 x i8] }>
%"class.boost::archive::detail::basic_iarchive" = type { ptr, %"class.boost::archive::detail::helper_collection", %"class.boost::scoped_ptr" }
%"class.boost::archive::detail::helper_collection" = type { %"class.std::vector.8" }
%"class.std::vector.8" = type { %"struct.std::_Vector_base.9" }
%"struct.std::_Vector_base.9" = type { %"struct.std::_Vector_base<std::pair<const void *, boost::shared_ptr<void>>, std::allocator<std::pair<const void *, boost::shared_ptr<void>>>>::_Vector_impl" }
%"struct.std::_Vector_base<std::pair<const void *, boost::shared_ptr<void>>, std::allocator<std::pair<const void *, boost::shared_ptr<void>>>>::_Vector_impl" = type { %"struct.std::_Vector_base<std::pair<const void *, boost::shared_ptr<void>>, std::allocator<std::pair<const void *, boost::shared_ptr<void>>>>::_Vector_impl_data" }
%"struct.std::_Vector_base<std::pair<const void *, boost::shared_ptr<void>>, std::allocator<std::pair<const void *, boost::shared_ptr<void>>>>::_Vector_impl_data" = type { ptr, ptr, ptr }
%"class.boost::scoped_ptr" = type { ptr }
%"class.__gnu_cxx::__normal_iterator" = type { ptr }

; Function Attrs: mustprogress nounwind uwtable
define linkonce_odr hidden noundef nonnull align 8 dereferenceable(8) ptr @_ZNK9__gnu_cxx17__normal_iteratorIPN5boost7archive6detail19basic_iarchive_impl7aobjectESt6vectorIS5_SaIS5_EEE4baseEv(ptr noundef nonnull align 8 dereferenceable(8) %0) #2 comdat align 2 {
  %2 = alloca ptr, align 8
  store ptr %0, ptr %2, align 8, !tbaa !3
  %3 = load ptr, ptr %2, align 8
  %4 = getelementptr inbounds nuw %"class.__gnu_cxx::__normal_iterator", ptr %3, i32 0, i32 0
  ret ptr %4
}

; Function Attrs: mustprogress nounwind uwtable
define linkonce_odr hidden void @_ZN9__gnu_cxx17__normal_iteratorIPN5boost7archive6detail19basic_iarchive_impl7aobjectESt6vectorIS5_SaIS5_EEEC2ERKS6_(ptr noundef nonnull align 8 dereferenceable(8) %0, ptr noundef nonnull align 8 dereferenceable(8) %1) unnamed_addr #2 comdat align 2 {
  %3 = alloca ptr, align 8
  %4 = alloca ptr, align 8
  store ptr %0, ptr %3, align 8, !tbaa !3
  store ptr %1, ptr %4, align 8, !tbaa !3
  %5 = load ptr, ptr %3, align 8
  %6 = getelementptr inbounds nuw %"class.__gnu_cxx::__normal_iterator", ptr %5, i32 0, i32 0
  %7 = load ptr, ptr %4, align 8, !tbaa !3
  %8 = load ptr, ptr %7, align 8, !tbaa !3
  store ptr %8, ptr %6, align 8, !tbaa !99
  ret void
}

; Function Attrs: mustprogress nounwind uwtable
define linkonce_odr hidden noundef nonnull align 8 dereferenceable(8) ptr @_ZN9__gnu_cxx17__normal_iteratorIPN5boost7archive6detail19basic_iarchive_impl7aobjectESt6vectorIS5_SaIS5_EEEppEv(ptr noundef nonnull align 8 dereferenceable(8) %0) #2 comdat align 2 {
  %2 = alloca ptr, align 8
  store ptr %0, ptr %2, align 8, !tbaa !3
  %3 = load ptr, ptr %2, align 8
  %4 = getelementptr inbounds nuw %"class.__gnu_cxx::__normal_iterator", ptr %3, i32 0, i32 0
  %5 = load ptr, ptr %4, align 8, !tbaa !99
  %6 = getelementptr inbounds nuw %"struct.boost::archive::detail::basic_iarchive_impl::aobject", ptr %5, i32 1
  store ptr %6, ptr %4, align 8, !tbaa !99
  ret ptr %3
}

; Function Attrs: mustprogress nounwind uwtable
define linkonce_odr hidden noundef nonnull align 8 dereferenceable(22) ptr @_ZNSt6vectorIN5boost7archive6detail19basic_iarchive_impl10cobject_idESaIS4_EEixEm(ptr noundef nonnull align 8 dereferenceable(24) %0, i64 noundef %1) #2 comdat align 2 {
  %3 = alloca ptr, align 8
  %4 = alloca i64, align 8
  store ptr %0, ptr %3, align 8, !tbaa !3
  store i64 %1, ptr %4, align 8, !tbaa !48
  %5 = load ptr, ptr %3, align 8
  %6 = getelementptr inbounds nuw %"struct.std::_Vector_base.4", ptr %5, i32 0, i32 0
  %7 = getelementptr inbounds nuw %"struct.std::_Vector_base<boost::archive::detail::basic_iarchive_impl::cobject_id, std::allocator<boost::archive::detail::basic_iarchive_impl::cobject_id>>::_Vector_impl_data", ptr %6, i32 0, i32 0
  %8 = load ptr, ptr %7, align 8, !tbaa !79
  %9 = load i64, ptr %4, align 8, !tbaa !48
  %10 = getelementptr inbounds nuw %"class.boost::archive::detail::basic_iarchive_impl::cobject_id", ptr %8, i64 %9
  ret ptr %10
}

; Function Attrs: mustprogress nounwind uwtable
define linkonce_odr hidden noundef nonnull align 2 dereferenceable(2) ptr @_ZN5boost7archive13class_id_typecvRsEv(ptr noundef nonnull align 2 dereferenceable(2) %0) #2 comdat align 2 {
  %2 = alloca ptr, align 8
  store ptr %0, ptr %2, align 8, !tbaa !3
  %3 = load ptr, ptr %2, align 8
  %4 = getelementptr inbounds nuw %"class.boost::archive::class_id_type", ptr %3, i32 0, i32 0
  ret ptr %4
}

; Function Attrs: mustprogress nounwind uwtable
define linkonce_odr hidden noundef ptr @_ZNK9__gnu_cxx17__normal_iteratorIPN5boost7archive6detail19basic_iarchive_impl7aobjectESt6vectorIS5_SaIS5_EEEptEv(ptr noundef nonnull align 8 dereferenceable(8) %0) #2 comdat align 2 {
  %2 = alloca ptr, align 8
  store ptr %0, ptr %2, align 8, !tbaa !3
  %3 = load ptr, ptr %2, align 8
  %4 = getelementptr inbounds nuw %"class.__gnu_cxx::__normal_iterator", ptr %3, i32 0, i32 0
  %5 = load ptr, ptr %4, align 8, !tbaa !99
  ret ptr %5
}

; Function Attrs: inlinehint mustprogress nounwind uwtable
define linkonce_odr hidden noundef zeroext i1 @_ZN9__gnu_cxxneIPN5boost7archive6detail19basic_iarchive_impl7aobjectESt6vectorIS5_SaIS5_EEEEbRKNS_17__normal_iteratorIT_T0_EESF_(ptr noundef nonnull align 8 dereferenceable(8) %0, ptr noundef nonnull align 8 dereferenceable(8) %1) #9 comdat {
  %3 = alloca ptr, align 8
  %4 = alloca ptr, align 8
  store ptr %0, ptr %3, align 8, !tbaa !3
  store ptr %1, ptr %4, align 8, !tbaa !3
  %5 = load ptr, ptr %3, align 8, !tbaa !3
  %6 = call noundef nonnull align 8 dereferenceable(8) ptr @_ZNK9__gnu_cxx17__normal_iteratorIPN5boost7archive6detail19basic_iarchive_impl7aobjectESt6vectorIS5_SaIS5_EEE4baseEv(ptr noundef nonnull align 8 dereferenceable(8) %5) #16
  %7 = load ptr, ptr %6, align 8, !tbaa !3
  %8 = load ptr, ptr %4, align 8, !tbaa !3
  %9 = call noundef nonnull align 8 dereferenceable(8) ptr @_ZNK9__gnu_cxx17__normal_iteratorIPN5boost7archive6detail19basic_iarchive_impl7aobjectESt6vectorIS5_SaIS5_EEE4baseEv(ptr noundef nonnull align 8 dereferenceable(8) %8) #16
  %10 = load ptr, ptr %9, align 8, !tbaa !3
  %11 = icmp ne ptr %7, %10
  ret i1 %11
}

; Function Attrs: mustprogress nounwind uwtable
define linkonce_odr hidden ptr @_ZNSt6vectorIN5boost7archive6detail19basic_iarchive_impl7aobjectESaIS4_EE3endEv(ptr noundef nonnull align 8 dereferenceable(24) %0) #2 comdat align 2 {
  %2 = alloca %"class.__gnu_cxx::__normal_iterator", align 8
  %3 = alloca ptr, align 8
  store ptr %0, ptr %3, align 8, !tbaa !3
  %4 = load ptr, ptr %3, align 8
  %5 = getelementptr inbounds nuw %"struct.std::_Vector_base", ptr %4, i32 0, i32 0
  %6 = getelementptr inbounds nuw %"struct.std::_Vector_base<boost::archive::detail::basic_iarchive_impl::aobject, std::allocator<boost::archive::detail::basic_iarchive_impl::aobject>>::_Vector_impl_data", ptr %5, i32 0, i32 1
  call void @_ZN9__gnu_cxx17__normal_iteratorIPN5boost7archive6detail19basic_iarchive_impl7aobjectESt6vectorIS5_SaIS5_EEEC2ERKS6_(ptr noundef nonnull align 8 dereferenceable(8) %2, ptr noundef nonnull align 8 dereferenceable(8) %6) #16
  %7 = getelementptr inbounds nuw %"class.__gnu_cxx::__normal_iterator", ptr %2, i32 0, i32 0
  %8 = load ptr, ptr %7, align 8
  ret ptr %8
}

; Function Attrs: mustprogress nounwind uwtable
define linkonce_odr hidden ptr @_ZNSt6vectorIN5boost7archive6detail19basic_iarchive_impl7aobjectESaIS4_EE5beginEv(ptr noundef nonnull align 8 dereferenceable(24) %0) #2 comdat align 2 {
  %2 = alloca %"class.__gnu_cxx::__normal_iterator", align 8
  %3 = alloca ptr, align 8
  store ptr %0, ptr %3, align 8, !tbaa !3
  %4 = load ptr, ptr %3, align 8
  %5 = getelementptr inbounds nuw %"struct.std::_Vector_base", ptr %4, i32 0, i32 0
  %6 = getelementptr inbounds nuw %"struct.std::_Vector_base<boost::archive::detail::basic_iarchive_impl::aobject, std::allocator<boost::archive::detail::basic_iarchive_impl::aobject>>::_Vector_impl_data", ptr %5, i32 0, i32 0
  call void @_ZN9__gnu_cxx17__normal_iteratorIPN5boost7archive6detail19basic_iarchive_impl7aobjectESt6vectorIS5_SaIS5_EEEC2ERKS6_(ptr noundef nonnull align 8 dereferenceable(8) %2, ptr noundef nonnull align 8 dereferenceable(8) %6) #16
  %7 = getelementptr inbounds nuw %"class.__gnu_cxx::__normal_iterator", ptr %2, i32 0, i32 0
  %8 = load ptr, ptr %7, align 8
  ret ptr %8
}

; Function Attrs: mustprogress nounwind uwtable
define linkonce_odr hidden void @_ZN9__gnu_cxx17__normal_iteratorIPN5boost7archive6detail19basic_iarchive_impl7aobjectESt6vectorIS5_SaIS5_EEEC2Ev(ptr noundef nonnull align 8 dereferenceable(8) %0) unnamed_addr #2 comdat align 2 {
  %2 = alloca ptr, align 8
  store ptr %0, ptr %2, align 8, !tbaa !3
  %3 = load ptr, ptr %2, align 8
  %4 = getelementptr inbounds nuw %"class.__gnu_cxx::__normal_iterator", ptr %3, i32 0, i32 0
  store ptr null, ptr %4, align 8, !tbaa !99
  ret void
}

; Function Attrs: inlinehint mustprogress uwtable
define linkonce_odr hidden void @_ZN5boost7archive6detail19basic_iarchive_impl23delete_created_pointersEv(ptr noundef nonnull align 8 dereferenceable(144) %0) #6 comdat align 2 {
  %2 = alloca ptr, align 8
  %3 = alloca %"class.__gnu_cxx::__normal_iterator", align 8
  %4 = alloca %"class.__gnu_cxx::__normal_iterator", align 8
  %5 = alloca %"class.__gnu_cxx::__normal_iterator", align 8
  %6 = alloca i32, align 4
  %7 = alloca ptr, align 8
  store ptr %0, ptr %2, align 8, !tbaa !3
  %8 = load ptr, ptr %2, align 8
  call void @llvm.lifetime.start.p0(i64 8, ptr %3) #16
  call void @_ZN9__gnu_cxx17__normal_iteratorIPN5boost7archive6detail19basic_iarchive_impl7aobjectESt6vectorIS5_SaIS5_EEEC2Ev(ptr noundef nonnull align 8 dereferenceable(8) %3) #16
  call void @llvm.lifetime.start.p0(i64 8, ptr %4) #16
  %9 = getelementptr inbounds nuw %"class.boost::archive::detail::basic_iarchive_impl", ptr %8, i32 0, i32 2
  %10 = call ptr @_ZNSt6vectorIN5boost7archive6detail19basic_iarchive_impl7aobjectESaIS4_EE5beginEv(ptr noundef nonnull align 8 dereferenceable(24) %9) #16
  %11 = getelementptr inbounds nuw %"class.__gnu_cxx::__normal_iterator", ptr %4, i32 0, i32 0
  store ptr %10, ptr %11, align 8
  call void @llvm.memcpy.p0.p0.i64(ptr align 8 %3, ptr align 8 %4, i64 8, i1 false), !tbaa.struct !70
  call void @llvm.lifetime.end.p0(i64 8, ptr %4) #16
  br label %12

12:                                               ; preds = %42, %1
  call void @llvm.lifetime.start.p0(i64 8, ptr %5) #16
  %13 = getelementptr inbounds nuw %"class.boost::archive::detail::basic_iarchive_impl", ptr %8, i32 0, i32 2
  %14 = call ptr @_ZNSt6vectorIN5boost7archive6detail19basic_iarchive_impl7aobjectESaIS4_EE3endEv(ptr noundef nonnull align 8 dereferenceable(24) %13) #16
  %15 = getelementptr inbounds nuw %"class.__gnu_cxx::__normal_iterator", ptr %5, i32 0, i32 0
  store ptr %14, ptr %15, align 8
  %16 = call noundef zeroext i1 @_ZN9__gnu_cxxneIPN5boost7archive6detail19basic_iarchive_impl7aobjectESt6vectorIS5_SaIS5_EEEEbRKNS_17__normal_iteratorIT_T0_EESF_(ptr noundef nonnull align 8 dereferenceable(8) %3, ptr noundef nonnull align 8 dereferenceable(8) %5) #16
  call void @llvm.lifetime.end.p0(i64 8, ptr %5) #16
  br i1 %16, label %17, label %44

17:                                               ; preds = %12
  %18 = call noundef ptr @_ZNK9__gnu_cxx17__normal_iteratorIPN5boost7archive6detail19basic_iarchive_impl7aobjectESt6vectorIS5_SaIS5_EEEptEv(ptr noundef nonnull align 8 dereferenceable(8) %3) #16
  %19 = getelementptr inbounds nuw %"struct.boost::archive::detail::basic_iarchive_impl::aobject", ptr %18, i32 0, i32 1
  %20 = load i8, ptr %19, align 8, !tbaa !61, !range !13, !noundef !14
  %21 = trunc i8 %20 to i1
  br i1 %21, label %22, label %41

22:                                               ; preds = %17
  call void @llvm.lifetime.start.p0(i64 4, ptr %6) #16
  %23 = call noundef ptr @_ZNK9__gnu_cxx17__normal_iteratorIPN5boost7archive6detail19basic_iarchive_impl7aobjectESt6vectorIS5_SaIS5_EEEptEv(ptr noundef nonnull align 8 dereferenceable(8) %3) #16
  %24 = getelementptr inbounds nuw %"struct.boost::archive::detail::basic_iarchive_impl::aobject", ptr %23, i32 0, i32 3
  %25 = call noundef nonnull align 2 dereferenceable(2) ptr @_ZN5boost7archive13class_id_typecvRsEv(ptr noundef nonnull align 2 dereferenceable(2) %24)
  %26 = load i16, ptr %25, align 2, !tbaa !64
  %27 = sext i16 %26 to i32
  store i32 %27, ptr %6, align 4, !tbaa !42
  call void @llvm.lifetime.start.p0(i64 8, ptr %7) #16
  %28 = getelementptr inbounds nuw %"class.boost::archive::detail::basic_iarchive_impl", ptr %8, i32 0, i32 5
  %29 = load i32, ptr %6, align 4, !tbaa !42
  %30 = sext i32 %29 to i64
  %31 = call noundef nonnull align 8 dereferenceable(22) ptr @_ZNSt6vectorIN5boost7archive6detail19basic_iarchive_impl10cobject_idESaIS4_EEixEm(ptr noundef nonnull align 8 dereferenceable(24) %28, i64 noundef %30) #16
  store ptr %31, ptr %7, align 8, !tbaa !3
  %32 = load ptr, ptr %7, align 8, !tbaa !3
  %33 = getelementptr inbounds nuw %"class.boost::archive::detail::basic_iarchive_impl::cobject_id", ptr %32, i32 0, i32 0
  %34 = load ptr, ptr %33, align 8, !tbaa !15
  %35 = call noundef ptr @_ZNK9__gnu_cxx17__normal_iteratorIPN5boost7archive6detail19basic_iarchive_impl7aobjectESt6vectorIS5_SaIS5_EEEptEv(ptr noundef nonnull align 8 dereferenceable(8) %3) #16
  %36 = getelementptr inbounds nuw %"struct.boost::archive::detail::basic_iarchive_impl::aobject", ptr %35, i32 0, i32 0
  %37 = load ptr, ptr %36, align 8, !tbaa !49
  %38 = load ptr, ptr %34, align 8, !tbaa !16
  %39 = getelementptr inbounds ptr, ptr %38, i64 7
  %40 = load ptr, ptr %39, align 8
  call void %40(ptr noundef nonnull align 8 dereferenceable(24) %34, ptr noundef %37)
  call void @llvm.lifetime.end.p0(i64 8, ptr %7) #16
  call void @llvm.lifetime.end.p0(i64 4, ptr %6) #16
  br label %41

41:                                               ; preds = %22, %17
  br label %42

42:                                               ; preds = %41
  %43 = call noundef nonnull align 8 dereferenceable(8) ptr @_ZN9__gnu_cxx17__normal_iteratorIPN5boost7archive6detail19basic_iarchive_impl7aobjectESt6vectorIS5_SaIS5_EEEppEv(ptr noundef nonnull align 8 dereferenceable(8) %3) #16
  br label %12, !llvm.loop !71

44:                                               ; preds = %12
  call void @llvm.lifetime.end.p0(i64 8, ptr %3) #16
  ret void
}

; Function Attrs: mustprogress nounwind uwtable
define linkonce_odr hidden noundef ptr @_ZNK5boost10scoped_ptrINS_7archive6detail19basic_iarchive_implEEptEv(ptr noundef nonnull align 8 dereferenceable(8) %0) #2 comdat align 2 {
  %2 = alloca ptr, align 8
  store ptr %0, ptr %2, align 8, !tbaa !3
  %3 = load ptr, ptr %2, align 8
  %4 = getelementptr inbounds nuw %"class.boost::scoped_ptr", ptr %3, i32 0, i32 0
  %5 = load ptr, ptr %4, align 8, !tbaa !54
  ret ptr %5
}

; Function Attrs: mustprogress uwtable
define void @_ZN5boost7archive6detail14basic_iarchive23delete_created_pointersEv(ptr noundef nonnull align 8 dereferenceable(40) %0) #0 align 2 {
  %2 = alloca ptr, align 8
  store ptr %0, ptr %2, align 8, !tbaa !3
  %3 = load ptr, ptr %2, align 8
  %4 = getelementptr inbounds nuw %"class.boost::archive::detail::basic_iarchive", ptr %3, i32 0, i32 2
  %5 = call noundef ptr @_ZNK5boost10scoped_ptrINS_7archive6detail19basic_iarchive_implEEptEv(ptr noundef nonnull align 8 dereferenceable(8) %4) #16
  call void @_ZN5boost7archive6detail19basic_iarchive_impl23delete_created_pointersEv(ptr noundef nonnull align 8 dereferenceable(144) %5)
  ret void
}