; Function Attrs: mustprogress uwtable
define void @_ZN5boost7archive6detail14basic_iarchive23delete_created_pointersEv(ptr nocapture noundef nonnull readonly align 8 dereferenceable(40) %0) local_unnamed_addr #0 align 2 {
  %2 = getelementptr inbounds nuw i8, ptr %0, i64 32
  %3 = load ptr, ptr %2, align 8, !tbaa !52
  %4 = getelementptr inbounds nuw i8, ptr %3, i64 8
  %5 = load ptr, ptr %4, align 8, !tbaa !51
  %6 = getelementptr inbounds nuw i8, ptr %3, i64 16
  %7 = load ptr, ptr %6, align 8, !tbaa !51
  %.not7.i = icmp eq ptr %5, %7
  br i1 %.not7.i, label %_ZN5boost7archive6detail19basic_iarchive_impl23delete_created_pointersEv.exit, label %.lr.ph.i

.lr.ph.i:                                         ; preds = %1
  %8 = getelementptr inbounds nuw i8, ptr %3, i64 96
  br label %9

9:                                                ; preds = %25, %.lr.ph.i
  %10 = phi ptr [ %7, %.lr.ph.i ], [ %26, %25 ]
  %.sroa.02.08.i = phi ptr [ %5, %.lr.ph.i ], [ %27, %25 ]
  %11 = getelementptr inbounds nuw i8, ptr %.sroa.02.08.i, i64 8
  %12 = load i8, ptr %11, align 8, !tbaa !73, !range !12, !noundef !13
  %13 = trunc nuw i8 %12 to i1
  br i1 %13, label %14, label %25

14:                                               ; preds = %9
  %15 = getelementptr inbounds nuw i8, ptr %.sroa.02.08.i, i64 10
  %16 = load i16, ptr %15, align 2, !tbaa !87
  %17 = sext i16 %16 to i64
  %18 = load ptr, ptr %8, align 8, !tbaa !67
  %19 = getelementptr inbounds nuw %"class.boost::archive::detail::basic_iarchive_impl::cobject_id", ptr %18, i64 %17
  %20 = load ptr, ptr %19, align 8, !tbaa !14
  %21 = load ptr, ptr %.sroa.02.08.i, align 8, !tbaa !49
  %22 = load ptr, ptr %20, align 8, !tbaa !15
  %23 = getelementptr inbounds i8, ptr %22, i64 56
  %24 = load ptr, ptr %23, align 8
  tail call void %24(ptr noundef nonnull align 8 dereferenceable(24) %20, ptr noundef %21)
  %.pre.i = load ptr, ptr %6, align 8, !tbaa !51
  br label %25

25:                                               ; preds = %14, %9
  %26 = phi ptr [ %10, %9 ], [ %.pre.i, %14 ]
  %27 = getelementptr inbounds nuw i8, ptr %.sroa.02.08.i, i64 16
  %.not.i = icmp eq ptr %27, %26
  br i1 %.not.i, label %_ZN5boost7archive6detail19basic_iarchive_impl23delete_created_pointersEv.exit, label %9, !llvm.loop !98

_ZN5boost7archive6detail19basic_iarchive_impl23delete_created_pointersEv.exit: ; preds = %25, %1
  ret void
}